target datalayout = "e-m:e-p270:32:32-p271:32:32-p272:64:64-i64:64-i128:128-f80:128-n8:16:32:64-S128"
target triple = "x86_64-pc-linux-gnu"

%struct.stbcc__cluster_build_info = type { [32 x [32 x %struct.stbcc__tinypoint]], [32 x [32 x i16]] }
%struct.stbcc__tinypoint = type { i8, i8 }

; Function Attrs: nounwind uwtable
define i16 @stbcc__incluster_find(ptr noundef %0, i32 noundef %1, i32 noundef %2) #0 {
  %4 = alloca %struct.stbcc__tinypoint, align 1
  %5 = alloca ptr, align 8
  %6 = alloca i32, align 4
  %7 = alloca i32, align 4
  %8 = alloca %struct.stbcc__tinypoint, align 1
  %9 = alloca %struct.stbcc__tinypoint, align 1
  %10 = alloca i32, align 4
  %11 = alloca %struct.stbcc__tinypoint, align 1
  store ptr %0, ptr %5, align 8, !tbaa !14
  store i32 %1, ptr %6, align 4, !tbaa !8
  store i32 %2, ptr %7, align 4, !tbaa !8
  call void @llvm.lifetime.start.p0(i64 2, ptr %8) #4
  call void @llvm.lifetime.start.p0(i64 2, ptr %9) #4
  %12 = load ptr, ptr %5, align 8, !tbaa !14
  %13 = getelementptr inbounds nuw %struct.stbcc__cluster_build_info, ptr %12, i32 0, i32 0
  %14 = load i32, ptr %7, align 4, !tbaa !8
  %15 = sext i32 %14 to i64
  %16 = getelementptr inbounds [32 x [32 x %struct.stbcc__tinypoint]], ptr %13, i64 0, i64 %15
  %17 = load i32, ptr %6, align 4, !tbaa !8
  %18 = sext i32 %17 to i64
  %19 = getelementptr inbounds [32 x %struct.stbcc__tinypoint], ptr %16, i64 0, i64 %18
  call void @llvm.memcpy.p0.p0.i64(ptr align 1 %8, ptr align 2 %19, i64 2, i1 false), !tbaa.struct !58
  %20 = getelementptr inbounds nuw %struct.stbcc__tinypoint, ptr %8, i32 0, i32 0
  %21 = load i8, ptr %20, align 1, !tbaa !46
  %22 = zext i8 %21 to i32
  %23 = load i32, ptr %6, align 4, !tbaa !8
  %24 = icmp eq i32 %22, %23
  br i1 %24, label %25, label %32

25:                                               ; preds = %3
  %26 = getelementptr inbounds nuw %struct.stbcc__tinypoint, ptr %8, i32 0, i32 1
  %27 = load i8, ptr %26, align 1, !tbaa !48
  %28 = zext i8 %27 to i32
  %29 = load i32, ptr %7, align 4, !tbaa !8
  %30 = icmp eq i32 %28, %29
  br i1 %30, label %31, label %32

31:                                               ; preds = %25
  call void @llvm.memcpy.p0.p0.i64(ptr align 1 %4, ptr align 1 %8, i64 2, i1 false), !tbaa.struct !58
  store i32 1, ptr %10, align 4
  br label %49

32:                                               ; preds = %25, %3
  call void @llvm.lifetime.start.p0(i64 2, ptr %11) #4
  %33 = load ptr, ptr %5, align 8, !tbaa !14
  %34 = getelementptr inbounds nuw %struct.stbcc__tinypoint, ptr %8, i32 0, i32 0
  %35 = load i8, ptr %34, align 1, !tbaa !46
  %36 = zext i8 %35 to i32
  %37 = getelementptr inbounds nuw %struct.stbcc__tinypoint, ptr %8, i32 0, i32 1
  %38 = load i8, ptr %37, align 1, !tbaa !48
  %39 = zext i8 %38 to i32
  %40 = call i16 @stbcc__incluster_find(ptr noundef %33, i32 noundef %36, i32 noundef %39)
  store i16 %40, ptr %11, align 1
  call void @llvm.memcpy.p0.p0.i64(ptr align 1 %9, ptr align 1 %11, i64 2, i1 false), !tbaa.struct !58
  call void @llvm.lifetime.end.p0(i64 2, ptr %11) #4
  %41 = load ptr, ptr %5, align 8, !tbaa !14
  %42 = getelementptr inbounds nuw %struct.stbcc__cluster_build_info, ptr %41, i32 0, i32 0
  %43 = load i32, ptr %7, align 4, !tbaa !8
  %44 = sext i32 %43 to i64
  %45 = getelementptr inbounds [32 x [32 x %struct.stbcc__tinypoint]], ptr %42, i64 0, i64 %44
  %46 = load i32, ptr %6, align 4, !tbaa !8
  %47 = sext i32 %46 to i64
  %48 = getelementptr inbounds [32 x %struct.stbcc__tinypoint], ptr %45, i64 0, i64 %47
  call void @llvm.memcpy.p0.p0.i64(ptr align 2 %48, ptr align 1 %9, i64 2, i1 false), !tbaa.struct !58
  call void @llvm.memcpy.p0.p0.i64(ptr align 1 %4, ptr align 1 %9, i64 2, i1 false), !tbaa.struct !58
  store i32 1, ptr %10, align 4
  br label %49

49:                                               ; preds = %32, %31
  call void @llvm.lifetime.end.p0(i64 2, ptr %9) #4
  call void @llvm.lifetime.end.p0(i64 2, ptr %8) #4
  %50 = load i16, ptr %4, align 1
  ret i16 %50
}