; Function Attrs: nofree nosync nounwind memory(argmem: readwrite) uwtable
define i16 @stbcc__incluster_find(ptr noundef captures(none) %0, i32 noundef %1, i32 noundef %2) local_unnamed_addr #3 {
  %4 = sext i32 %2 to i64
  %5 = sext i32 %1 to i64
  %6 = getelementptr inbounds [32 x [32 x %struct.stbcc__tinypoint]], ptr %0, i64 0, i64 %4, i64 %5
  %.sroa.03.0.copyload = load i8, ptr %6, align 2, !tbaa !7
  %.sroa.6.0..sroa_idx = getelementptr inbounds nuw i8, ptr %6, i64 1
  %.sroa.6.0.copyload = load i8, ptr %.sroa.6.0..sroa_idx, align 1, !tbaa !7
  %7 = zext i8 %.sroa.03.0.copyload to i32
  %8 = icmp eq i32 %1, %7
  %9 = zext i8 %.sroa.6.0.copyload to i32
  %10 = icmp eq i32 %2, %9
  %or.cond = select i1 %8, i1 %10, i1 false
  br i1 %or.cond, label %13, label %11

11:                                               ; preds = %3
  %12 = tail call i16 @stbcc__incluster_find(ptr noundef nonnull %0, i32 noundef %7, i32 noundef %9)
  store i16 %12, ptr %6, align 2
  %.sroa.016.0.extract.trunc = trunc i16 %12 to i8
  %.sroa.3.0.extract.shift = lshr i16 %12, 8
  %.sroa.3.0.extract.trunc = trunc nuw i16 %.sroa.3.0.extract.shift to i8
  br label %13

13:                                               ; preds = %3, %11
  %.sroa.016.0 = phi i8 [ %.sroa.016.0.extract.trunc, %11 ], [ %.sroa.03.0.copyload, %3 ]
  %.sroa.3.0 = phi i8 [ %.sroa.3.0.extract.trunc, %11 ], [ %.sroa.6.0.copyload, %3 ]
  %.sroa.3.0.insert.ext = zext i8 %.sroa.3.0 to i16
  %.sroa.3.0.insert.shift = shl nuw i16 %.sroa.3.0.insert.ext, 8
  %.sroa.016.0.insert.ext = zext i8 %.sroa.016.0 to i16
  %.sroa.016.0.insert.insert = or disjoint i16 %.sroa.3.0.insert.shift, %.sroa.016.0.insert.ext
  ret i16 %.sroa.016.0.insert.insert
}